target datalayout = "e-m:e-p270:32:32-p271:32:32-p272:64:64-i64:64-i128:128-f80:128-n8:16:32:64-S128"
target triple = "x86_64-pc-linux-gnu"

; Function Attrs: nounwind uwtable
define ptr @lab_gamut_quadtree(ptr noundef %0, i32 noundef %1) #0 {
  %3 = alloca ptr, align 8
  %4 = alloca ptr, align 8
  %5 = alloca i32, align 4
  %6 = alloca i32, align 4
  %7 = alloca ptr, align 8
  %8 = alloca ptr, align 8
  %9 = alloca i32, align 4
  %10 = alloca i32, align 4
  store ptr %0, ptr %4, align 8, !tbaa !25
  store i32 %1, ptr %5, align 4, !tbaa !19
  call void @llvm.lifetime.start.p0(i64 4, ptr %6) #11
  call void @llvm.lifetime.start.p0(i64 8, ptr %7) #11
  %11 = load ptr, ptr %4, align 8, !tbaa !25
  %12 = call ptr @lab_gamut(ptr noundef %11, ptr noundef %6)
  store ptr %12, ptr %7, align 8, !tbaa !21
  call void @llvm.lifetime.start.p0(i64 8, ptr %8) #11
  call void @llvm.lifetime.start.p0(i64 4, ptr %9) #11
  store i32 3, ptr %9, align 4, !tbaa !19
  %13 = load ptr, ptr %7, align 8, !tbaa !21
  %14 = icmp ne ptr %13, null
  br i1 %14, label %16, label %15

15:                                               ; preds = %2
  store ptr null, ptr %3, align 8
  store i32 1, ptr %10, align 4
  br label %24

16:                                               ; preds = %2
  %17 = load i32, ptr %9, align 4, !tbaa !19
  %18 = load i32, ptr %6, align 4, !tbaa !19
  %19 = load i32, ptr %5, align 4, !tbaa !19
  %20 = load ptr, ptr %7, align 8, !tbaa !21
  %21 = call ptr @QuadTree_new_from_point_list(i32 noundef %17, i32 noundef %18, i32 noundef %19, ptr noundef %20)
  store ptr %21, ptr %8, align 8, !tbaa !36
  %22 = load ptr, ptr %7, align 8, !tbaa !21
  call void @free(ptr noundef %22) #11
  %23 = load ptr, ptr %8, align 8, !tbaa !36
  store ptr %23, ptr %3, align 8
  store i32 1, ptr %10, align 4
  br label %24

24:                                               ; preds = %16, %15
  call void @llvm.lifetime.end.p0(i64 4, ptr %9) #11
  call void @llvm.lifetime.end.p0(i64 8, ptr %8) #11
  call void @llvm.lifetime.end.p0(i64 8, ptr %7) #11
  call void @llvm.lifetime.end.p0(i64 4, ptr %6) #11
  %25 = load ptr, ptr %3, align 8
  ret ptr %25
}