; Function Attrs: nounwind uwtable
define ptr @lab_gamut_quadtree(ptr noundef readonly captures(none) %0, i32 noundef %1) local_unnamed_addr #10 {
  %3 = alloca i32, align 4
  call void @llvm.lifetime.start.p0(i64 4, ptr nonnull %3) #19
  %4 = call ptr @lab_gamut(ptr noundef %0, ptr noundef nonnull %3)
  %.not = icmp eq ptr %4, null
  br i1 %.not, label %8, label %5

5:                                                ; preds = %2
  %6 = load i32, ptr %3, align 4, !tbaa !18
  %7 = tail call ptr @QuadTree_new_from_point_list(i32 noundef 3, i32 noundef %6, i32 noundef %1, ptr noundef nonnull %4) #19
  tail call void @free(ptr noundef nonnull %4) #19
  br label %8

8:                                                ; preds = %2, %5
  %.0 = phi ptr [ %7, %5 ], [ null, %2 ]
  call void @llvm.lifetime.end.p0(i64 4, ptr nonnull %3) #19
  ret ptr %.0
}